target datalayout = "e-m:e-p270:32:32-p271:32:32-p272:64:64-i64:64-i128:128-f80:128-n8:16:32:64-S128"
target triple = "x86_64-pc-linux-gnu"

%"class.glslang::TParseVersions" = type { ptr, i8, i32, ptr, i32, i32, %"struct.glslang::SpvVersion", ptr, %"class.glslang::TMap", %"class.glslang::TMap.0", %"class.glslang::TVector", i32, i32, ptr }
%"struct.glslang::SpvVersion" = type <{ i32, i32, i32, i32, i8, [3 x i8] }>
%"class.glslang::TMap" = type { %"class.std::map" }
%"class.std::map" = type { %"class.std::_Rb_tree" }
%"class.std::_Rb_tree" = type { %"struct.std::_Rb_tree<std::__cxx11::basic_string<char, std::char_traits<char>, glslang::pool_allocator<char>>, std::pair<const std::__cxx11::basic_string<char, std::char_traits<char>, glslang::pool_allocator<char>>, glslang::TExtensionBehavior>, std::_Select1st<std::pair<const std::__cxx11::basic_string<char, std::char_traits<char>, glslang::pool_allocator<char>>, glslang::TExtensionBehavior>>, std::less<std::__cxx11::basic_string<char, std::char_traits<char>, glslang::pool_allocator<char>>>, glslang::pool_allocator<std::pair<const std::__cxx11::basic_string<char, std::char_traits<char>, glslang::pool_allocator<char>>, glslang::TExtensionBehavior>>>::_Rb_tree_impl" }
%"struct.std::_Rb_tree<std::__cxx11::basic_string<char, std::char_traits<char>, glslang::pool_allocator<char>>, std::pair<const std::__cxx11::basic_string<char, std::char_traits<char>, glslang::pool_allocator<char>>, glslang::TExtensionBehavior>, std::_Select1st<std::pair<const std::__cxx11::basic_string<char, std::char_traits<char>, glslang::pool_allocator<char>>, glslang::TExtensionBehavior>>, std::less<std::__cxx11::basic_string<char, std::char_traits<char>, glslang::pool_allocator<char>>>, glslang::pool_allocator<std::pair<const std::__cxx11::basic_string<char, std::char_traits<char>, glslang::pool_allocator<char>>, glslang::TExtensionBehavior>>>::_Rb_tree_impl" = type { %"class.glslang::pool_allocator", %"struct.std::_Rb_tree_key_compare", %"struct.std::_Rb_tree_header" }
%"class.glslang::pool_allocator" = type { ptr }
%"struct.std::_Rb_tree_key_compare" = type { %"struct.std::less" }
%"struct.std::less" = type { i8 }
%"struct.std::_Rb_tree_header" = type { %"struct.std::_Rb_tree_node_base", i64 }
%"struct.std::_Rb_tree_node_base" = type { i32, ptr, ptr, ptr }
%"class.glslang::TMap.0" = type { %"class.std::map.1" }
%"class.std::map.1" = type { %"class.std::_Rb_tree.2" }
%"class.std::_Rb_tree.2" = type { %"struct.std::_Rb_tree<std::__cxx11::basic_string<char, std::char_traits<char>, glslang::pool_allocator<char>>, std::pair<const std::__cxx11::basic_string<char, std::char_traits<char>, glslang::pool_allocator<char>>, unsigned int>, std::_Select1st<std::pair<const std::__cxx11::basic_string<char, std::char_traits<char>, glslang::pool_allocator<char>>, unsigned int>>, std::less<std::__cxx11::basic_string<char, std::char_traits<char>, glslang::pool_allocator<char>>>, glslang::pool_allocator<std::pair<const std::__cxx11::basic_string<char, std::char_traits<char>, glslang::pool_allocator<char>>, unsigned int>>>::_Rb_tree_impl" }
%"struct.std::_Rb_tree<std::__cxx11::basic_string<char, std::char_traits<char>, glslang::pool_allocator<char>>, std::pair<const std::__cxx11::basic_string<char, std::char_traits<char>, glslang::pool_allocator<char>>, unsigned int>, std::_Select1st<std::pair<const std::__cxx11::basic_string<char, std::char_traits<char>, glslang::pool_allocator<char>>, unsigned int>>, std::less<std::__cxx11::basic_string<char, std::char_traits<char>, glslang::pool_allocator<char>>>, glslang::pool_allocator<std::pair<const std::__cxx11::basic_string<char, std::char_traits<char>, glslang::pool_allocator<char>>, unsigned int>>>::_Rb_tree_impl" = type { %"class.glslang::pool_allocator.3", %"struct.std::_Rb_tree_key_compare", %"struct.std::_Rb_tree_header" }
%"class.glslang::pool_allocator.3" = type { ptr }
%"class.glslang::TVector" = type { %"class.std::vector" }
%"class.std::vector" = type { %"struct.std::_Vector_base" }
%"struct.std::_Vector_base" = type { %"struct.std::_Vector_base<std::__cxx11::basic_string<char, std::char_traits<char>, glslang::pool_allocator<char>>, glslang::pool_allocator<std::__cxx11::basic_string<char, std::char_traits<char>, glslang::pool_allocator<char>>>>::_Vector_impl" }
%"struct.std::_Vector_base<std::__cxx11::basic_string<char, std::char_traits<char>, glslang::pool_allocator<char>>, glslang::pool_allocator<std::__cxx11::basic_string<char, std::char_traits<char>, glslang::pool_allocator<char>>>>::_Vector_impl" = type { %"class.glslang::pool_allocator.4", %"struct.std::_Vector_base<std::__cxx11::basic_string<char, std::char_traits<char>, glslang::pool_allocator<char>>, glslang::pool_allocator<std::__cxx11::basic_string<char, std::char_traits<char>, glslang::pool_allocator<char>>>>::_Vector_impl_data" }
%"class.glslang::pool_allocator.4" = type { ptr }
%"struct.std::_Vector_base<std::__cxx11::basic_string<char, std::char_traits<char>, glslang::pool_allocator<char>>, glslang::pool_allocator<std::__cxx11::basic_string<char, std::char_traits<char>, glslang::pool_allocator<char>>>>::_Vector_impl_data" = type { ptr, ptr, ptr }
%"class.std::_Function_base" = type { %"union.std::_Any_data", ptr }
%"union.std::_Any_data" = type { %"union.std::_Nocopy_types" }
%"union.std::_Nocopy_types" = type { { i64, i64 } }
%"class.glslang::TParseContextBase" = type { %"class.glslang::TParseVersions", ptr, ptr, %"class.glslang::TVector", i32, i32, i32, i32, i32, ptr, i8, i8, %"class.glslang::TList", %"class.glslang::TList.6", %"struct.glslang::TPragma", i32, i32, i8, i8, %"class.glslang::TVector.14", ptr, ptr, %struct.TBuiltInResource, ptr, %"class.std::__cxx11::basic_string", %"class.std::function", %"class.std::function.19", %"class.std::function.22", %"class.std::function.24", %"class.std::function.26", ptr, i32, i32, i32, %"class.glslang::TMap.29", i32, %"class.glslang::TMap.36" }
%"class.glslang::TList" = type { %"class.std::__cxx11::list" }
%"class.std::__cxx11::list" = type { %"class.std::__cxx11::_List_base" }
%"class.std::__cxx11::_List_base" = type { %"struct.std::__cxx11::_List_base<glslang::TVector<TIntermNode *> *, glslang::pool_allocator<glslang::TVector<TIntermNode *> *>>::_List_impl" }
%"struct.std::__cxx11::_List_base<glslang::TVector<TIntermNode *> *, glslang::pool_allocator<glslang::TVector<TIntermNode *> *>>::_List_impl" = type { %"class.glslang::pool_allocator.5", %"struct.std::__detail::_List_node_header" }
%"class.glslang::pool_allocator.5" = type { ptr }
%"struct.std::__detail::_List_node_header" = type { %"struct.std::__detail::_List_node_base", i64 }
%"struct.std::__detail::_List_node_base" = type { ptr, ptr }
%"class.glslang::TList.6" = type { %"class.std::__cxx11::list.7" }
%"class.std::__cxx11::list.7" = type { %"class.std::__cxx11::_List_base.8" }
%"class.std::__cxx11::_List_base.8" = type { %"struct.std::__cxx11::_List_base<int, glslang::pool_allocator<int>>::_List_impl" }
%"struct.std::__cxx11::_List_base<int, glslang::pool_allocator<int>>::_List_impl" = type { %"class.glslang::pool_allocator.9", %"struct.std::__detail::_List_node_header" }
%"class.glslang::pool_allocator.9" = type { ptr }
%"struct.glslang::TPragma" = type { i8, i8, %"class.glslang::TPragmaTable" }
%"class.glslang::TPragmaTable" = type { %"class.glslang::TMap.10" }
%"class.glslang::TMap.10" = type { %"class.std::map.11" }
%"class.std::map.11" = type { %"class.std::_Rb_tree.12" }
%"class.std::_Rb_tree.12" = type { %"struct.std::_Rb_tree<std::__cxx11::basic_string<char, std::char_traits<char>, glslang::pool_allocator<char>>, std::pair<const std::__cxx11::basic_string<char, std::char_traits<char>, glslang::pool_allocator<char>>, std::__cxx11::basic_string<char, std::char_traits<char>, glslang::pool_allocator<char>>>, std::_Select1st<std::pair<const std::__cxx11::basic_string<char, std::char_traits<char>, glslang::pool_allocator<char>>, std::__cxx11::basic_string<char, std::char_traits<char>, glslang::pool_allocator<char>>>>, std::less<std::__cxx11::basic_string<char, std::char_traits<char>, glslang::pool_allocator<char>>>, glslang::pool_allocator<std::pair<const std::__cxx11::basic_string<char, std::char_traits<char>, glslang::pool_allocator<char>>, std::__cxx11::basic_string<char, std::char_traits<char>, glslang::pool_allocator<char>>>>>::_Rb_tree_impl" }
%"struct.std::_Rb_tree<std::__cxx11::basic_string<char, std::char_traits<char>, glslang::pool_allocator<char>>, std::pair<const std::__cxx11::basic_string<char, std::char_traits<char>, glslang::pool_allocator<char>>, std::__cxx11::basic_string<char, std::char_traits<char>, glslang::pool_allocator<char>>>, std::_Select1st<std::pair<const std::__cxx11::basic_string<char, std::char_traits<char>, glslang::pool_allocator<char>>, std::__cxx11::basic_string<char, std::char_traits<char>, glslang::pool_allocator<char>>>>, std::less<std::__cxx11::basic_string<char, std::char_traits<char>, glslang::pool_allocator<char>>>, glslang::pool_allocator<std::pair<const std::__cxx11::basic_string<char, std::char_traits<char>, glslang::pool_allocator<char>>, std::__cxx11::basic_string<char, std::char_traits<char>, glslang::pool_allocator<char>>>>>::_Rb_tree_impl" = type { %"class.glslang::pool_allocator.13", %"struct.std::_Rb_tree_key_compare", %"struct.std::_Rb_tree_header" }
%"class.glslang::pool_allocator.13" = type { ptr }
%"class.glslang::TVector.14" = type { %"class.std::vector.15" }
%"class.std::vector.15" = type { %"struct.std::_Vector_base.16" }
%"struct.std::_Vector_base.16" = type { %"struct.std::_Vector_base<glslang::TSymbol *, glslang::pool_allocator<glslang::TSymbol *>>::_Vector_impl" }
%"struct.std::_Vector_base<glslang::TSymbol *, glslang::pool_allocator<glslang::TSymbol *>>::_Vector_impl" = type { %"class.glslang::pool_allocator.17", %"struct.std::_Vector_base<glslang::TSymbol *, glslang::pool_allocator<glslang::TSymbol *>>::_Vector_impl_data" }
%"class.glslang::pool_allocator.17" = type { ptr }
%"struct.std::_Vector_base<glslang::TSymbol *, glslang::pool_allocator<glslang::TSymbol *>>::_Vector_impl_data" = type { ptr, ptr, ptr }
%struct.TBuiltInResource = type { i32, i32, i32, i32, i32, i32, i32, i32, i32, i32, i32, i32, i32, i32, i32, i32, i32, i32, i32, i32, i32, i32, i32, i32, i32, i32, i32, i32, i32, i32, i32, i32, i32, i32, i32, i32, i32, i32, i32, i32, i32, i32, i32, i32, i32, i32, i32, i32, i32, i32, i32, i32, i32, i32, i32, i32, i32, i32, i32, i32, i32, i32, i32, i32, i32, i32, i32, i32, i32, i32, i32, i32, i32, i32, i32, i32, i32, i32, i32, i32, i32, i32, i32, i32, i32, i32, i32, i32, i32, i32, i32, i32, i32, i32, i32, i32, i32, i32, i32, i32, i32, i32, %struct.TLimits }
%struct.TLimits = type { i8, i8, i8, i8, i8, i8, i8, i8, i8 }
%"class.std::__cxx11::basic_string" = type { %"struct.std::__cxx11::basic_string<char, std::char_traits<char>, glslang::pool_allocator<char>>::_Alloc_hider", i64, %union.anon }
%"struct.std::__cxx11::basic_string<char, std::char_traits<char>, glslang::pool_allocator<char>>::_Alloc_hider" = type { %"class.glslang::pool_allocator.18", ptr }
%"class.glslang::pool_allocator.18" = type { ptr }
%union.anon = type { i64, [8 x i8] }
%"class.std::function" = type { %"class.std::_Function_base", ptr }
%"class.std::function.19" = type { %"class.std::_Function_base", ptr }
%"class.std::function.22" = type { %"class.std::_Function_base", ptr }
%"class.std::function.24" = type { %"class.std::_Function_base", ptr }
%"class.std::function.26" = type { %"class.std::_Function_base", ptr }
%"class.glslang::TMap.29" = type { %"class.std::map.30" }
%"class.std::map.30" = type { %"class.std::_Rb_tree.31" }
%"class.std::_Rb_tree.31" = type { %"struct.std::_Rb_tree<int, std::pair<const int, glslang::TVariable *>, std::_Select1st<std::pair<const int, glslang::TVariable *>>, std::less<int>, glslang::pool_allocator<std::pair<const int, glslang::TVariable *>>>::_Rb_tree_impl" }
%"struct.std::_Rb_tree<int, std::pair<const int, glslang::TVariable *>, std::_Select1st<std::pair<const int, glslang::TVariable *>>, std::less<int>, glslang::pool_allocator<std::pair<const int, glslang::TVariable *>>>::_Rb_tree_impl" = type { %"class.glslang::pool_allocator.32", %"struct.std::_Rb_tree_key_compare.33", %"struct.std::_Rb_tree_header" }
%"class.glslang::pool_allocator.32" = type { ptr }
%"struct.std::_Rb_tree_key_compare.33" = type { %"struct.std::less.34" }
%"struct.std::less.34" = type { i8 }
%"class.glslang::TMap.36" = type { %"class.std::map.37" }
%"class.std::map.37" = type { %"class.std::_Rb_tree.38" }
%"class.std::_Rb_tree.38" = type { %"struct.std::_Rb_tree<int, std::pair<const int, int>, std::_Select1st<std::pair<const int, int>>, std::less<int>, glslang::pool_allocator<std::pair<const int, int>>>::_Rb_tree_impl" }
%"struct.std::_Rb_tree<int, std::pair<const int, int>, std::_Select1st<std::pair<const int, int>>, std::less<int>, glslang::pool_allocator<std::pair<const int, int>>>::_Rb_tree_impl" = type { %"class.glslang::pool_allocator.39", %"struct.std::_Rb_tree_key_compare.33", %"struct.std::_Rb_tree_header" }
%"class.glslang::pool_allocator.39" = type { ptr }

; Function Attrs: mustprogress nounwind uwtable
define void @_ZN7glslang17TParseContextBase12makeEditableERPNS_7TSymbolE(ptr noundef nonnull align 8 dereferenceable(1280) %0, ptr noundef nonnull align 8 dereferenceable(8) %1) unnamed_addr #0 align 2 {
  %3 = alloca ptr, align 8
  %4 = alloca ptr, align 8
  store ptr %0, ptr %3, align 8
  store ptr %1, ptr %4, align 8
  %5 = load ptr, ptr %3, align 8
  %6 = getelementptr inbounds %"class.glslang::TParseContextBase", ptr %5, i32 0, i32 2
  %7 = load ptr, ptr %6, align 8
  %8 = load ptr, ptr %4, align 8
  %9 = load ptr, ptr %8, align 8
  %10 = call noundef ptr @_ZN7glslang12TSymbolTable6copyUpEPNS_7TSymbolE(ptr noundef nonnull align 8 dereferenceable(40) %7, ptr noundef %9)
  %11 = load ptr, ptr %4, align 8
  store ptr %10, ptr %11, align 8
  %12 = load ptr, ptr %4, align 8
  %13 = load ptr, ptr %12, align 8
  %14 = icmp ne ptr %13, null
  br i1 %14, label %15, label %21

15:                                               ; preds = %2
  %16 = load ptr, ptr %4, align 8
  %17 = load ptr, ptr %16, align 8
  %18 = load ptr, ptr %5, align 8
  %19 = getelementptr inbounds ptr, ptr %18, i64 75
  %20 = load ptr, ptr %19, align 8
  call void %20(ptr noundef nonnull align 8 dereferenceable(1280) %5, ptr noundef nonnull align 8 dereferenceable(33) %17)
  br label %21

21:                                               ; preds = %15, %2
  ret void
}