; Function Attrs: mustprogress nounwind uwtable
define void @_ZN7glslang17TParseContextBase12makeEditableERPNS_7TSymbolE(ptr noundef nonnull align 8 dereferenceable(1280) %0, ptr noundef nonnull align 8 captures(none) dereferenceable(8) %1) unnamed_addr #0 align 2 {
  %3 = getelementptr inbounds nuw i8, ptr %0, i64 232
  %4 = load ptr, ptr %3, align 8
  %5 = load ptr, ptr %1, align 8
  %6 = tail call noundef ptr @_ZN7glslang12TSymbolTable6copyUpEPNS_7TSymbolE(ptr noundef nonnull align 8 dereferenceable(40) %4, ptr noundef %5)
  store ptr %6, ptr %1, align 8
  %.not = icmp eq ptr %6, null
  br i1 %.not, label %11, label %7

7:                                                ; preds = %2
  %8 = load ptr, ptr %0, align 8
  %9 = getelementptr inbounds nuw i8, ptr %8, i64 600
  %10 = load ptr, ptr %9, align 8
  tail call void %10(ptr noundef nonnull align 8 dereferenceable(1280) %0, ptr noundef nonnull align 8 dereferenceable(33) %6) #16
  br label %11

11:                                               ; preds = %7, %2
  ret void
}